target datalayout = "e-m:e-p270:32:32-p271:32:32-p272:64:64-i64:64-i128:128-f80:128-n8:16:32:64-S128"
target triple = "x86_64-pc-linux-gnu"

%struct.pmix_lock_t = type { i32, %struct.pmix_mutex_t, %union.pthread_cond_t, i8 }
%struct.pmix_mutex_t = type { %struct.pmix_object_t, %union.pthread_mutex_t }
%struct.pmix_object_t = type { %union.pthread_mutex_t, ptr, i32, %struct.pmix_tma }
%struct.pmix_tma = type { ptr, ptr, ptr, ptr, ptr, ptr, ptr, ptr }
%union.pthread_mutex_t = type { %struct.__pthread_mutex_s }
%struct.__pthread_mutex_s = type { i32, i32, i32, i32, i32, i16, i16, %struct.__pthread_internal_list }
%struct.__pthread_internal_list = type { ptr, ptr }
%union.pthread_cond_t = type { %struct.__pthread_cond_s }
%struct.__pthread_cond_s = type { %union.__atomic_wide_counter, %union.__atomic_wide_counter, [2 x i32], [2 x i32], i32, i32, [2 x i32] }
%union.__atomic_wide_counter = type { i64 }
%struct.pmix_value = type { i16, %union.anon.9 }
%union.anon.9 = type { %struct.pmix_envar_t }
%struct.pmix_envar_t = type { ptr, ptr, i8 }
%struct.timeval = type { i64, i64 }
%struct.pmix_list_t = type { %struct.pmix_object_t, %struct.pmix_list_item_t, i64 }
%struct.pmix_list_item_t = type { %struct.pmix_object_t, ptr, ptr, i32 }
%struct.pmix_cb_t = type { %struct.pmix_list_item_t, %struct.event, %struct.pmix_lock_t, i8, i32, i32, i8, %struct.pmix_buffer_t, %union.anon.8, i64, ptr, %struct.pmix_name_t, ptr, ptr, ptr, ptr, i64, ptr, i64, ptr, i8, i64, %struct.pmix_list_t, i8, ptr, i8, ptr, ptr }
%struct.event = type { %struct.event_callback, %union.anon.0, i32, ptr, %union.anon.2, i16, i16, %struct.timeval }
%struct.event_callback = type { %struct.anon, i16, i8, i8, %union.anon, ptr }
%struct.anon = type { ptr, ptr }
%union.anon = type { ptr }
%union.anon.0 = type { %struct.anon.1 }
%struct.anon.1 = type { ptr, ptr }
%union.anon.2 = type { %struct.anon.3 }
%struct.anon.3 = type { %struct.anon.4, %struct.timeval }
%struct.anon.4 = type { ptr, ptr }
%struct.pmix_buffer_t = type { %struct.pmix_object_t, i8, ptr, ptr, ptr, i64, i64 }
%union.anon.8 = type { ptr }
%struct.pmix_name_t = type { ptr, i32 }
%struct.pmix_info = type { [512 x i8], i32, %struct.pmix_value }

; Function Attrs: inlinehint nounwind uwtable
define internal void @pmix_mutex_unlock(ptr noundef %0) #2 {
  %2 = alloca ptr, align 8
  store ptr %0, ptr %2, align 8, !tbaa !72
  %3 = load ptr, ptr %2, align 8, !tbaa !72
  %4 = getelementptr inbounds nuw %struct.pmix_mutex_t, ptr %3, i32 0, i32 1
  %5 = call i32 @pthread_mutex_unlock(ptr noundef %4) #11
  ret void
}

; Function Attrs: inlinehint nounwind uwtable
define internal void @pmix_atomic_wmb() #2 {
  fence release
  ret void
}

; Function Attrs: inlinehint nounwind uwtable
define internal void @pmix_mutex_lock(ptr noundef %0) #2 {
  %2 = alloca ptr, align 8
  store ptr %0, ptr %2, align 8, !tbaa !72
  %3 = load ptr, ptr %2, align 8, !tbaa !72
  %4 = getelementptr inbounds nuw %struct.pmix_mutex_t, ptr %3, i32 0, i32 1
  %5 = call i32 @pthread_mutex_lock(ptr noundef %4) #11
  ret void
}

; Function Attrs: nounwind uwtable
define internal void @acb(i32 noundef %0, ptr noundef %1, i64 noundef %2, ptr noundef %3, ptr noundef %4, ptr noundef %5) #0 {
  %7 = alloca i32, align 4
  %8 = alloca ptr, align 8
  %9 = alloca i64, align 8
  %10 = alloca ptr, align 8
  %11 = alloca ptr, align 8
  %12 = alloca ptr, align 8
  %13 = alloca ptr, align 8
  %14 = alloca i64, align 8
  store i32 %0, ptr %7, align 4, !tbaa !50
  store ptr %1, ptr %8, align 8, !tbaa !6
  store i64 %2, ptr %9, align 8, !tbaa !9
  store ptr %3, ptr %10, align 8, !tbaa !87
  store ptr %4, ptr %11, align 8, !tbaa !87
  store ptr %5, ptr %12, align 8, !tbaa !87
  call void @llvm.lifetime.start.p0(i64 8, ptr %13) #11
  %15 = load ptr, ptr %10, align 8, !tbaa !87
  store ptr %15, ptr %13, align 8, !tbaa !87
  call void @llvm.lifetime.start.p0(i64 8, ptr %14) #11
  %16 = load i32, ptr %7, align 4, !tbaa !50
  %17 = load ptr, ptr %13, align 8, !tbaa !87
  %18 = getelementptr inbounds nuw %struct.pmix_cb_t, ptr %17, i32 0, i32 4
  store i32 %16, ptr %18, align 4, !tbaa !69
  %19 = load ptr, ptr %8, align 8, !tbaa !6
  %20 = icmp ne ptr null, %19
  br i1 %20, label %21, label %55

21:                                               ; preds = %6
  %22 = load i64, ptr %9, align 8, !tbaa !9
  %23 = call ptr @PMIx_Info_create(i64 noundef %22)
  %24 = load ptr, ptr %13, align 8, !tbaa !87
  %25 = getelementptr inbounds nuw %struct.pmix_cb_t, ptr %24, i32 0, i32 17
  store ptr %23, ptr %25, align 8, !tbaa !70
  %26 = load ptr, ptr %13, align 8, !tbaa !87
  %27 = getelementptr inbounds nuw %struct.pmix_cb_t, ptr %26, i32 0, i32 17
  %28 = load ptr, ptr %27, align 8, !tbaa !70
  %29 = icmp eq ptr null, %28
  br i1 %29, label %30, label %33

30:                                               ; preds = %21
  %31 = load ptr, ptr %13, align 8, !tbaa !87
  %32 = getelementptr inbounds nuw %struct.pmix_cb_t, ptr %31, i32 0, i32 4
  store i32 -32, ptr %32, align 4, !tbaa !69
  br label %56

33:                                               ; preds = %21
  %34 = load i64, ptr %9, align 8, !tbaa !9
  %35 = load ptr, ptr %13, align 8, !tbaa !87
  %36 = getelementptr inbounds nuw %struct.pmix_cb_t, ptr %35, i32 0, i32 18
  store i64 %34, ptr %36, align 8, !tbaa !71
  store i64 0, ptr %14, align 8, !tbaa !9
  br label %37

37:                                               ; preds = %51, %33
  %38 = load i64, ptr %14, align 8, !tbaa !9
  %39 = load i64, ptr %9, align 8, !tbaa !9
  %40 = icmp ult i64 %38, %39
  br i1 %40, label %41, label %54

41:                                               ; preds = %37
  %42 = load ptr, ptr %13, align 8, !tbaa !87
  %43 = getelementptr inbounds nuw %struct.pmix_cb_t, ptr %42, i32 0, i32 17
  %44 = load ptr, ptr %43, align 8, !tbaa !70
  %45 = load i64, ptr %14, align 8, !tbaa !9
  %46 = getelementptr inbounds nuw %struct.pmix_info, ptr %44, i64 %45
  %47 = load ptr, ptr %8, align 8, !tbaa !6
  %48 = load i64, ptr %14, align 8, !tbaa !9
  %49 = getelementptr inbounds nuw %struct.pmix_info, ptr %47, i64 %48
  %50 = call i32 @PMIx_Info_xfer(ptr noundef %46, ptr noundef %49)
  br label %51

51:                                               ; preds = %41
  %52 = load i64, ptr %14, align 8, !tbaa !9
  %53 = add i64 %52, 1
  store i64 %53, ptr %14, align 8, !tbaa !9
  br label %37, !llvm.loop !128

54:                                               ; preds = %37
  br label %55

55:                                               ; preds = %54, %6
  br label %56

56:                                               ; preds = %55, %30
  %57 = load ptr, ptr %11, align 8, !tbaa !87
  %58 = icmp ne ptr null, %57
  br i1 %58, label %59, label %62

59:                                               ; preds = %56
  %60 = load ptr, ptr %11, align 8, !tbaa !87
  %61 = load ptr, ptr %12, align 8, !tbaa !87
  call void %60(ptr noundef %61)
  br label %62

62:                                               ; preds = %59, %56
  br label %63

63:                                               ; preds = %62
  %64 = load ptr, ptr %13, align 8, !tbaa !87
  %65 = getelementptr inbounds nuw %struct.pmix_cb_t, ptr %64, i32 0, i32 2
  %66 = getelementptr inbounds nuw %struct.pmix_lock_t, ptr %65, i32 0, i32 1
  call void @pmix_mutex_lock(ptr noundef %66)
  %67 = load ptr, ptr %13, align 8, !tbaa !87
  %68 = getelementptr inbounds nuw %struct.pmix_cb_t, ptr %67, i32 0, i32 2
  %69 = getelementptr inbounds nuw %struct.pmix_lock_t, ptr %68, i32 0, i32 3
  store volatile i8 0, ptr %69, align 8, !tbaa !55
  call void @pmix_atomic_wmb()
  %70 = load ptr, ptr %13, align 8, !tbaa !87
  %71 = getelementptr inbounds nuw %struct.pmix_cb_t, ptr %70, i32 0, i32 2
  %72 = getelementptr inbounds nuw %struct.pmix_lock_t, ptr %71, i32 0, i32 2
  %73 = call i32 @pthread_cond_broadcast(ptr noundef %72) #11
  %74 = load ptr, ptr %13, align 8, !tbaa !87
  %75 = getelementptr inbounds nuw %struct.pmix_cb_t, ptr %74, i32 0, i32 2
  %76 = getelementptr inbounds nuw %struct.pmix_lock_t, ptr %75, i32 0, i32 1
  call void @pmix_mutex_unlock(ptr noundef %76)
  br label %77

77:                                               ; preds = %63
  br label %78

78:                                               ; preds = %77
  call void @llvm.lifetime.end.p0(i64 8, ptr %14) #11
  call void @llvm.lifetime.end.p0(i64 8, ptr %13) #11
  ret void
}