; Function Attrs: nounwind uwtable
define internal void @acb(i32 noundef %0, ptr noundef %1, i64 noundef %2, ptr noundef initializes((500, 504)) %3, ptr noundef readonly captures(address_is_null) %4, ptr noundef %5) #0 {
  %7 = getelementptr inbounds nuw i8, ptr %3, i64 500
  store i32 %0, ptr %7, align 4, !tbaa !70
  %.not = icmp eq ptr %1, null
  br i1 %.not, label %.loopexit, label %8

8:                                                ; preds = %6
  %9 = tail call ptr @PMIx_Info_create(i64 noundef %2) #12
  %10 = getelementptr inbounds nuw i8, ptr %3, i64 760
  store ptr %9, ptr %10, align 8, !tbaa !71
  %11 = icmp eq ptr %9, null
  br i1 %11, label %12, label %13

12:                                               ; preds = %8
  store i32 -32, ptr %7, align 4, !tbaa !70
  br label %.loopexit

13:                                               ; preds = %8
  %14 = getelementptr inbounds nuw i8, ptr %3, i64 768
  store i64 %2, ptr %14, align 8, !tbaa !72
  %.not27 = icmp eq i64 %2, 0
  br i1 %.not27, label %.loopexit, label %.lr.ph

.lr.ph:                                           ; preds = %13, %.lr.ph
  %.026 = phi i64 [ %19, %.lr.ph ], [ 0, %13 ]
  %15 = load ptr, ptr %10, align 8, !tbaa !71
  %16 = getelementptr inbounds nuw %struct.pmix_info, ptr %15, i64 %.026
  %17 = getelementptr inbounds nuw %struct.pmix_info, ptr %1, i64 %.026
  %18 = tail call i32 @PMIx_Info_xfer(ptr noundef %16, ptr noundef nonnull %17) #12
  %19 = add nuw i64 %.026, 1
  %exitcond.not = icmp eq i64 %19, %2
  br i1 %exitcond.not, label %.loopexit, label %.lr.ph, !llvm.loop !113

.loopexit:                                        ; preds = %.lr.ph, %13, %6, %12
  %.not25 = icmp eq ptr %4, null
  br i1 %.not25, label %21, label %20

20:                                               ; preds = %.loopexit
  tail call void %4(ptr noundef %5) #12
  br label %21

21:                                               ; preds = %.loopexit, %20
  %22 = getelementptr inbounds nuw i8, ptr %3, i64 400
  %23 = tail call i32 @pthread_mutex_lock(ptr noundef nonnull %22) #12
  %24 = getelementptr inbounds nuw i8, ptr %3, i64 488
  store volatile i8 0, ptr %24, align 8, !tbaa !56
  fence release
  %25 = getelementptr inbounds nuw i8, ptr %3, i64 440
  %26 = tail call i32 @pthread_cond_broadcast(ptr noundef nonnull %25) #12
  %27 = tail call i32 @pthread_mutex_unlock(ptr noundef nonnull %22) #12
  ret void
}